target datalayout = "e-m:e-p270:32:32-p271:32:32-p272:64:64-i64:64-i128:128-f80:128-n8:16:32:64-S128"
target triple = "x86_64-pc-linux-gnu"

%class.btRigidBody = type { %class.btCollisionObject.base, %class.btMatrix3x3, %class.btVector3, %class.btVector3, float, %class.btVector3, %class.btVector3, %class.btVector3, %class.btVector3, %class.btVector3, %class.btVector3, float, float, i8, float, float, float, float, float, float, ptr, %class.btAlignedObjectArray.0, i32, i32, %class.btVector3, %class.btVector3, %class.btVector3, %class.btVector3, %class.btVector3, %class.btVector3, i32, i32 }
%class.btCollisionObject.base = type <{ ptr, %class.btTransform, %class.btTransform, %class.btVector3, %class.btVector3, %class.btVector3, i32, float, ptr, ptr, ptr, ptr, i32, i32, i32, i32, i32, float, float, float, float, float, float, float, i32, [4 x i8], ptr, i32, i32, i32, float, float, float, i32, [4 x i8], %class.btAlignedObjectArray, i32, %class.btVector3 }>
%class.btTransform = type { %class.btMatrix3x3, %class.btVector3 }
%class.btAlignedObjectArray = type <{ [4 x i8], i32, i32, [4 x i8], ptr, i8, [7 x i8] }>
%class.btMatrix3x3 = type { [3 x %class.btVector3] }
%class.btAlignedObjectArray.0 = type <{ [4 x i8], i32, i32, [4 x i8], ptr, i8, [7 x i8] }>
%class.btVector3 = type { [4 x float] }
%class.btRaycastVehicle = type { %class.btActionInterface, %class.btAlignedObjectArray.2, %class.btAlignedObjectArray.2, %class.btAlignedObjectArray.4, %class.btAlignedObjectArray.4, i32, i32, ptr, float, float, float, ptr, i32, i32, i32, [4 x i8], %class.btAlignedObjectArray.6 }
%class.btActionInterface = type { ptr }
%class.btAlignedObjectArray.2 = type <{ [4 x i8], i32, i32, [4 x i8], ptr, i8, [7 x i8] }>
%class.btAlignedObjectArray.4 = type <{ [4 x i8], i32, i32, [4 x i8], ptr, i8, [7 x i8] }>
%class.btAlignedObjectArray.6 = type <{ [4 x i8], i32, i32, [4 x i8], ptr, i8, [7 x i8] }>
%struct.btWheelInfo = type { %"struct.btWheelInfo::RaycastInfo", %class.btTransform, %class.btVector3, %class.btVector3, %class.btVector3, float, float, float, float, float, float, float, float, float, float, float, float, float, float, i8, ptr, float, float, float, float }
%"struct.btWheelInfo::RaycastInfo" = type { %class.btVector3, %class.btVector3, float, %class.btVector3, %class.btVector3, %class.btVector3, i8, ptr }

; Function Attrs: inlinehint mustprogress nounwind uwtable
define linkonce_odr dso_local noundef i32 @_ZNK20btAlignedObjectArrayI11btWheelInfoE4sizeEv(ptr noundef nonnull align 8 dereferenceable(25) %0) #5 comdat align 2 {
  %2 = alloca ptr, align 8
  store ptr %0, ptr %2, align 8, !tbaa !51
  %3 = load ptr, ptr %2, align 8
  %4 = getelementptr inbounds nuw %class.btAlignedObjectArray.6, ptr %3, i32 0, i32 1
  %5 = load i32, ptr %4, align 4, !tbaa !81
  ret i32 %5
}

; Function Attrs: inlinehint mustprogress nounwind uwtable
define linkonce_odr dso_local noundef nonnull align 8 dereferenceable(296) ptr @_ZN20btAlignedObjectArrayI11btWheelInfoEixEi(ptr noundef nonnull align 8 dereferenceable(25) %0, i32 noundef %1) #5 comdat align 2 {
  %3 = alloca ptr, align 8
  %4 = alloca i32, align 4
  store ptr %0, ptr %3, align 8, !tbaa !51
  store i32 %1, ptr %4, align 4, !tbaa !9
  %5 = load ptr, ptr %3, align 8
  %6 = getelementptr inbounds nuw %class.btAlignedObjectArray.6, ptr %5, i32 0, i32 4
  %7 = load ptr, ptr %6, align 8, !tbaa !80
  %8 = load i32, ptr %4, align 4, !tbaa !9
  %9 = sext i32 %8 to i64
  %10 = getelementptr inbounds %struct.btWheelInfo, ptr %7, i64 %9
  ret ptr %10
}

; Function Attrs: inlinehint mustprogress uwtable
define linkonce_odr dso_local noundef i32 @_ZNK16btRaycastVehicle12getNumWheelsEv(ptr noundef nonnull align 8 dereferenceable(224) %0) #8 comdat align 2 {
  %2 = alloca ptr, align 8
  store ptr %0, ptr %2, align 8, !tbaa !23
  %3 = load ptr, ptr %2, align 8
  %4 = getelementptr inbounds nuw %class.btRaycastVehicle, ptr %3, i32 0, i32 16
  %5 = call noundef i32 @_ZNK20btAlignedObjectArrayI11btWheelInfoE4sizeEv(ptr noundef nonnull align 8 dereferenceable(25) %4)
  ret i32 %5
}

; Function Attrs: mustprogress nounwind uwtable
define linkonce_odr dso_local noundef float @_ZNK11btRigidBody10getInvMassEv(ptr noundef nonnull align 8 dereferenceable(744) %0) #1 comdat align 2 {
  %2 = alloca ptr, align 8
  store ptr %0, ptr %2, align 8, !tbaa !19
  %3 = load ptr, ptr %2, align 8
  %4 = getelementptr inbounds nuw %class.btRigidBody, ptr %3, i32 0, i32 4
  %5 = load float, ptr %4, align 4, !tbaa !137
  ret float %5
}

; Function Attrs: mustprogress uwtable
define dso_local void @_ZN16btRaycastVehicle16updateSuspensionEf(ptr noundef nonnull align 8 dereferenceable(224) %0, float noundef %1) #2 align 2 {
  %3 = alloca ptr, align 8
  %4 = alloca float, align 4
  %5 = alloca float, align 4
  %6 = alloca i32, align 4
  %7 = alloca ptr, align 8
  %8 = alloca float, align 4
  %9 = alloca float, align 4
  %10 = alloca float, align 4
  %11 = alloca float, align 4
  %12 = alloca float, align 4
  %13 = alloca float, align 4
  store ptr %0, ptr %3, align 8, !tbaa !23
  store float %1, ptr %4, align 4, !tbaa !13
  %14 = load ptr, ptr %3, align 8
  call void @llvm.lifetime.start.p0(i64 4, ptr %5) #3
  %15 = getelementptr inbounds nuw %class.btRaycastVehicle, ptr %14, i32 0, i32 11
  %16 = load ptr, ptr %15, align 8, !tbaa !41
  %17 = call noundef float @_ZNK11btRigidBody10getInvMassEv(ptr noundef nonnull align 8 dereferenceable(744) %16)
  %18 = fdiv float 1.000000e+00, %17
  store float %18, ptr %5, align 4, !tbaa !13
  call void @llvm.lifetime.start.p0(i64 4, ptr %6) #3
  store i32 0, ptr %6, align 4, !tbaa !9
  br label %19

19:                                               ; preds = %88, %2
  %20 = load i32, ptr %6, align 4, !tbaa !9
  %21 = call noundef i32 @_ZNK16btRaycastVehicle12getNumWheelsEv(ptr noundef nonnull align 8 dereferenceable(224) %14)
  %22 = icmp slt i32 %20, %21
  br i1 %22, label %24, label %23

23:                                               ; preds = %19
  call void @llvm.lifetime.end.p0(i64 4, ptr %6) #3
  br label %91

24:                                               ; preds = %19
  call void @llvm.lifetime.start.p0(i64 8, ptr %7) #3
  %25 = getelementptr inbounds nuw %class.btRaycastVehicle, ptr %14, i32 0, i32 16
  %26 = load i32, ptr %6, align 4, !tbaa !9
  %27 = call noundef nonnull align 8 dereferenceable(296) ptr @_ZN20btAlignedObjectArrayI11btWheelInfoEixEi(ptr noundef nonnull align 8 dereferenceable(25) %25, i32 noundef %26)
  store ptr %27, ptr %7, align 8, !tbaa !77
  %28 = load ptr, ptr %7, align 8, !tbaa !77
  %29 = getelementptr inbounds nuw %struct.btWheelInfo, ptr %28, i32 0, i32 0
  %30 = getelementptr inbounds nuw %"struct.btWheelInfo::RaycastInfo", ptr %29, i32 0, i32 6
  %31 = load i8, ptr %30, align 4, !tbaa !101, !range !70, !noundef !71
  %32 = trunc i8 %31 to i1
  br i1 %32, label %33, label %84

33:                                               ; preds = %24
  call void @llvm.lifetime.start.p0(i64 4, ptr %8) #3
  call void @llvm.lifetime.start.p0(i64 4, ptr %9) #3
  %34 = load ptr, ptr %7, align 8, !tbaa !77
  %35 = call noundef float @_ZNK11btWheelInfo23getSuspensionRestLengthEv(ptr noundef nonnull align 8 dereferenceable(296) %34)
  store float %35, ptr %9, align 4, !tbaa !13
  call void @llvm.lifetime.start.p0(i64 4, ptr %10) #3
  %36 = load ptr, ptr %7, align 8, !tbaa !77
  %37 = getelementptr inbounds nuw %struct.btWheelInfo, ptr %36, i32 0, i32 0
  %38 = getelementptr inbounds nuw %"struct.btWheelInfo::RaycastInfo", ptr %37, i32 0, i32 2
  %39 = load float, ptr %38, align 8, !tbaa !108
  store float %39, ptr %10, align 4, !tbaa !13
  call void @llvm.lifetime.start.p0(i64 4, ptr %11) #3
  %40 = load float, ptr %9, align 4, !tbaa !13
  %41 = load float, ptr %10, align 4, !tbaa !13
  %42 = fsub float %40, %41
  store float %42, ptr %11, align 4, !tbaa !13
  %43 = load ptr, ptr %7, align 8, !tbaa !77
  %44 = getelementptr inbounds nuw %struct.btWheelInfo, ptr %43, i32 0, i32 8
  %45 = load float, ptr %44, align 4, !tbaa !89
  %46 = load float, ptr %11, align 4, !tbaa !13
  %47 = fmul float %45, %46
  %48 = load ptr, ptr %7, align 8, !tbaa !77
  %49 = getelementptr inbounds nuw %struct.btWheelInfo, ptr %48, i32 0, i32 21
  %50 = load float, ptr %49, align 8, !tbaa !110
  %51 = fmul float %47, %50
  store float %51, ptr %8, align 4, !tbaa !13
  call void @llvm.lifetime.end.p0(i64 4, ptr %11) #3
  call void @llvm.lifetime.end.p0(i64 4, ptr %10) #3
  call void @llvm.lifetime.end.p0(i64 4, ptr %9) #3
  call void @llvm.lifetime.start.p0(i64 4, ptr %12) #3
  %52 = load ptr, ptr %7, align 8, !tbaa !77
  %53 = getelementptr inbounds nuw %struct.btWheelInfo, ptr %52, i32 0, i32 22
  %54 = load float, ptr %53, align 4, !tbaa !109
  store float %54, ptr %12, align 4, !tbaa !13
  call void @llvm.lifetime.start.p0(i64 4, ptr %13) #3
  %55 = load float, ptr %12, align 4, !tbaa !13
  %56 = fcmp olt float %55, 0.000000e+00
  br i1 %56, label %57, label %61

57:                                               ; preds = %33
  %58 = load ptr, ptr %7, align 8, !tbaa !77
  %59 = getelementptr inbounds nuw %struct.btWheelInfo, ptr %58, i32 0, i32 9
  %60 = load float, ptr %59, align 8, !tbaa !90
  store float %60, ptr %13, align 4, !tbaa !13
  br label %65

61:                                               ; preds = %33
  %62 = load ptr, ptr %7, align 8, !tbaa !77
  %63 = getelementptr inbounds nuw %struct.btWheelInfo, ptr %62, i32 0, i32 10
  %64 = load float, ptr %63, align 4, !tbaa !91
  store float %64, ptr %13, align 4, !tbaa !13
  br label %65

65:                                               ; preds = %61, %57
  %66 = load float, ptr %13, align 4, !tbaa !13
  %67 = load float, ptr %12, align 4, !tbaa !13
  %68 = load float, ptr %8, align 4, !tbaa !13
  %69 = fneg float %66
  %70 = call float @llvm.fmuladd.f32(float %69, float %67, float %68)
  store float %70, ptr %8, align 4, !tbaa !13
  call void @llvm.lifetime.end.p0(i64 4, ptr %13) #3
  call void @llvm.lifetime.end.p0(i64 4, ptr %12) #3
  %71 = load float, ptr %8, align 4, !tbaa !13
  %72 = load float, ptr %5, align 4, !tbaa !13
  %73 = fmul float %71, %72
  %74 = load ptr, ptr %7, align 8, !tbaa !77
  %75 = getelementptr inbounds nuw %struct.btWheelInfo, ptr %74, i32 0, i32 23
  store float %73, ptr %75, align 8, !tbaa !133
  %76 = load ptr, ptr %7, align 8, !tbaa !77
  %77 = getelementptr inbounds nuw %struct.btWheelInfo, ptr %76, i32 0, i32 23
  %78 = load float, ptr %77, align 8, !tbaa !133
  %79 = fcmp olt float %78, 0.000000e+00
  br i1 %79, label %80, label %83

80:                                               ; preds = %65
  %81 = load ptr, ptr %7, align 8, !tbaa !77
  %82 = getelementptr inbounds nuw %struct.btWheelInfo, ptr %81, i32 0, i32 23
  store float 0.000000e+00, ptr %82, align 8, !tbaa !133
  br label %83

83:                                               ; preds = %80, %65
  call void @llvm.lifetime.end.p0(i64 4, ptr %8) #3
  br label %87

84:                                               ; preds = %24
  %85 = load ptr, ptr %7, align 8, !tbaa !77
  %86 = getelementptr inbounds nuw %struct.btWheelInfo, ptr %85, i32 0, i32 23
  store float 0.000000e+00, ptr %86, align 8, !tbaa !133
  br label %87

87:                                               ; preds = %84, %83
  call void @llvm.lifetime.end.p0(i64 8, ptr %7) #3
  br label %88

88:                                               ; preds = %87
  %89 = load i32, ptr %6, align 4, !tbaa !9
  %90 = add nsw i32 %89, 1
  store i32 %90, ptr %6, align 4, !tbaa !9
  br label %19, !llvm.loop !136

91:                                               ; preds = %23
  call void @llvm.lifetime.end.p0(i64 4, ptr %5) #3
  ret void
}