; Function Attrs: mustprogress uwtable
define dso_local void @_ZN16btRaycastVehicle16updateSuspensionEf(ptr noundef nonnull readonly align 8 captures(none) dereferenceable(224) %0, float noundef %1) local_unnamed_addr #0 align 2 {
  %3 = getelementptr inbounds nuw i8, ptr %0, i64 168
  %4 = load ptr, ptr %3, align 8, !tbaa !49
  %5 = getelementptr inbounds nuw i8, ptr %4, i64 452
  %6 = load float, ptr %5, align 4, !tbaa !102
  %7 = fdiv float 1.000000e+00, %6
  %8 = getelementptr inbounds nuw i8, ptr %0, i64 196
  %9 = load i32, ptr %8, align 4, !tbaa !47
  %10 = icmp sgt i32 %9, 0
  br i1 %10, label %.lr.ph, label %._crit_edge

.lr.ph:                                           ; preds = %2
  %11 = getelementptr inbounds nuw i8, ptr %0, i64 208
  br label %12

._crit_edge:                                      ; preds = %37, %2
  ret void

12:                                               ; preds = %.lr.ph, %37
  %13 = phi i32 [ %9, %.lr.ph ], [ %38, %37 ]
  %indvars.iv = phi i64 [ 0, %.lr.ph ], [ %indvars.iv.next, %37 ]
  %14 = load ptr, ptr %11, align 8, !tbaa !46
  %15 = getelementptr inbounds nuw %struct.btWheelInfo, ptr %14, i64 %indvars.iv
  %16 = getelementptr inbounds nuw i8, ptr %15, i64 84
  %17 = load i8, ptr %16, align 4, !tbaa !70, !range !17, !noundef !18
  %18 = trunc nuw i8 %17 to i1
  br i1 %18, label %19, label %37

19:                                               ; preds = %12
  %20 = tail call noundef float @_ZNK11btWheelInfo23getSuspensionRestLengthEv(ptr noundef nonnull align 8 dereferenceable(296) %15)
  %21 = getelementptr inbounds nuw i8, ptr %15, i64 32
  %22 = load float, ptr %21, align 8, !tbaa !91
  %23 = fsub float %20, %22
  %24 = getelementptr inbounds nuw i8, ptr %15, i64 220
  %25 = load float, ptr %24, align 4, !tbaa !103
  %26 = fmul float %25, %23
  %27 = getelementptr inbounds nuw i8, ptr %15, i64 280
  %28 = load float, ptr %27, align 8, !tbaa !93
  %29 = fmul float %26, %28
  %30 = getelementptr inbounds nuw i8, ptr %15, i64 284
  %31 = load float, ptr %30, align 4, !tbaa !92
  %32 = fcmp olt float %31, 0.000000e+00
  %.0.in.v = select i1 %32, i64 224, i64 228
  %.0.in = getelementptr inbounds nuw i8, ptr %15, i64 %.0.in.v
  %.0 = load float, ptr %.0.in, align 4, !tbaa !64
  %33 = fneg float %.0
  %34 = tail call float @llvm.fmuladd.f32(float %33, float %31, float %29)
  %35 = fmul float %7, %34
  %36 = fcmp olt float %35, 0.000000e+00
  %storemerge = select i1 %36, float 0.000000e+00, float %35
  %.pre = load i32, ptr %8, align 4, !tbaa !47
  br label %37

37:                                               ; preds = %12, %19
  %38 = phi i32 [ %.pre, %19 ], [ %13, %12 ]
  %.sink = phi float [ %storemerge, %19 ], [ 0.000000e+00, %12 ]
  %39 = getelementptr inbounds nuw i8, ptr %15, i64 288
  store float %.sink, ptr %39, align 8, !tbaa !104
  %indvars.iv.next = add nuw nsw i64 %indvars.iv, 1
  %40 = sext i32 %38 to i64
  %41 = icmp slt i64 %indvars.iv.next, %40
  br i1 %41, label %12, label %._crit_edge, !llvm.loop !105
}